; Function Attrs: mustprogress uwtable
define void @_ZN5arrow11memory_pool8internal17JemallocAllocator17ReallocateAlignedElllPPh(ptr noalias sret(%"class.arrow::Status") align 8 %agg.result, i64 noundef %old_size, i64 noundef %new_size, i64 noundef %alignment, ptr noundef captures(none) %ptr) local_unnamed_addr #0 align 2 {
entry:
  %size.addr.i = alloca i64, align 8
  %new_size.addr = alloca i64, align 8
  store i64 %new_size, ptr %new_size.addr, align 8
  %0 = load ptr, ptr %ptr, align 8
  %cmp = icmp eq ptr %0, @_ZN5arrow11memory_pool8internal14zero_size_areaE
  br i1 %cmp, label %while.end6, label %if.end

while.end6:                                       ; preds = %entry
  tail call void @llvm.experimental.noalias.scope.decl(metadata !10)
  call void @llvm.lifetime.start.p0(i64 8, ptr nonnull %size.addr.i)
  store i64 %new_size, ptr %size.addr.i, align 8, !noalias !10
  %cmp.i = icmp eq i64 %new_size, 0
  br i1 %cmp.i, label %if.then.i, label %if.end.i

if.then.i:                                        ; preds = %while.end6
  store ptr @_ZN5arrow11memory_pool8internal14zero_size_areaE, ptr %ptr, align 8, !noalias !10
  store ptr null, ptr %agg.result, align 8, !alias.scope !13
  br label %_ZN5arrow11memory_pool8internal17JemallocAllocator15AllocateAlignedEllPPh.exit

if.end.i:                                         ; preds = %while.end6
  %cmp1.i = icmp ult i64 %alignment, 2147483647
  br i1 %cmp1.i, label %cond.true.i, label %cond.false.i

cond.true.i:                                      ; preds = %if.end.i
  %conv.i = trunc nuw nsw i64 %alignment to i32
  %cttz5.i = tail call range(i32 0, 33) i32 @llvm.cttz.i32(i32 %conv.i, i1 true)
  %.not6.i = icmp eq i64 %alignment, 0
  %sub.i = select i1 %.not6.i, i32 -1, i32 %cttz5.i
  br label %cond.end.i

cond.false.i:                                     ; preds = %if.end.i
  %shr.i = lshr i64 %alignment, 32
  %conv2.i = trunc nuw i64 %shr.i to i32
  %cttz.i = tail call range(i32 0, 33) i32 @llvm.cttz.i32(i32 %conv2.i, i1 true)
  %.not.i = icmp ult i64 %alignment, 4294967296
  %1 = or disjoint i32 %cttz.i, 32
  %add.i = select i1 %.not.i, i32 31, i32 %1
  br label %cond.end.i

cond.end.i:                                       ; preds = %cond.false.i, %cond.true.i
  %cond.i = phi i32 [ %sub.i, %cond.true.i ], [ %add.i, %cond.false.i ]
  %call4.i = tail call noalias ptr @je_arrow_mallocx(i64 noundef %new_size, i32 noundef %cond.i) #16, !noalias !10
  store ptr %call4.i, ptr %ptr, align 8, !noalias !10
  %cmp5.i = icmp eq ptr %call4.i, null
  br i1 %cmp5.i, label %if.then6.i, label %if.end7.i

if.then6.i:                                       ; preds = %cond.end.i
  call void @_ZN5arrow6Status8FromArgsIJRA16_KcRlRA8_S2_EEES0_NS_10StatusCodeEDpOT_(ptr sret(%"class.arrow::Status") align 8 %agg.result, i8 noundef signext 1, ptr noundef nonnull align 1 dereferenceable(16) @.str.1, ptr noundef nonnull align 8 dereferenceable(8) %size.addr.i, ptr noundef nonnull align 1 dereferenceable(8) @.str.2)
  br label %_ZN5arrow11memory_pool8internal17JemallocAllocator15AllocateAlignedEllPPh.exit

if.end7.i:                                        ; preds = %cond.end.i
  store ptr null, ptr %agg.result, align 8, !alias.scope !16
  br label %_ZN5arrow11memory_pool8internal17JemallocAllocator15AllocateAlignedEllPPh.exit

_ZN5arrow11memory_pool8internal17JemallocAllocator15AllocateAlignedEllPPh.exit: ; preds = %if.then.i, %if.then6.i, %if.end7.i
  call void @llvm.lifetime.end.p0(i64 8, ptr nonnull %size.addr.i)
  br label %return

if.end:                                           ; preds = %entry
  %cmp7 = icmp eq i64 %new_size, 0
  %cmp7.i = icmp ult i64 %alignment, 2147483647
  br i1 %cmp7, label %if.else.i, label %if.end9

if.else.i:                                        ; preds = %if.end
  br i1 %cmp7.i, label %cond.true.i24, label %cond.false.i16

cond.true.i24:                                    ; preds = %if.else.i
  %conv.i25 = trunc nuw nsw i64 %alignment to i32
  %cttz4.i = tail call range(i32 0, 33) i32 @llvm.cttz.i32(i32 %conv.i25, i1 true)
  %.not5.i = icmp eq i64 %alignment, 0
  %sub.i26 = select i1 %.not5.i, i32 -1, i32 %cttz4.i
  br label %_ZN5arrow11memory_pool8internal17JemallocAllocator17DeallocateAlignedEPhll.exit

cond.false.i16:                                   ; preds = %if.else.i
  %shr.i17 = lshr i64 %alignment, 32
  %conv8.i = trunc nuw i64 %shr.i17 to i32
  %cttz.i18 = tail call range(i32 0, 33) i32 @llvm.cttz.i32(i32 %conv8.i, i1 true)
  %.not.i19 = icmp ult i64 %alignment, 4294967296
  %2 = or disjoint i32 %cttz.i18, 32
  %add.i20 = select i1 %.not.i19, i32 31, i32 %2
  br label %_ZN5arrow11memory_pool8internal17JemallocAllocator17DeallocateAlignedEPhll.exit

_ZN5arrow11memory_pool8internal17JemallocAllocator17DeallocateAlignedEPhll.exit: ; preds = %cond.true.i24, %cond.false.i16
  %cond.i22 = phi i32 [ %sub.i26, %cond.true.i24 ], [ %add.i20, %cond.false.i16 ]
  tail call void @je_arrow_sdallocx(ptr noundef %0, i64 noundef %old_size, i32 noundef %cond.i22) #17
  store ptr @_ZN5arrow11memory_pool8internal14zero_size_areaE, ptr %ptr, align 8
  store ptr null, ptr %agg.result, align 8, !alias.scope !19
  br label %return

if.end9:                                          ; preds = %if.end
  br i1 %cmp7.i, label %cond.true, label %cond.false

cond.true:                                        ; preds = %if.end9
  %conv = trunc nuw nsw i64 %alignment to i32
  %cttz13 = tail call range(i32 0, 33) i32 @llvm.cttz.i32(i32 %conv, i1 true)
  %.not14 = icmp eq i64 %alignment, 0
  %sub = select i1 %.not14, i32 -1, i32 %cttz13
  br label %cond.end

cond.false:                                       ; preds = %if.end9
  %shr = lshr i64 %alignment, 32
  %conv11 = trunc nuw i64 %shr to i32
  %cttz = tail call range(i32 0, 33) i32 @llvm.cttz.i32(i32 %conv11, i1 true)
  %.not = icmp ult i64 %alignment, 4294967296
  %3 = or disjoint i32 %cttz, 32
  %add = select i1 %.not, i32 31, i32 %3
  br label %cond.end

cond.end:                                         ; preds = %cond.false, %cond.true
  %cond = phi i32 [ %sub, %cond.true ], [ %add, %cond.false ]
  %call13 = tail call ptr @je_arrow_rallocx(ptr noundef %0, i64 noundef %new_size, i32 noundef %cond) #18
  store ptr %call13, ptr %ptr, align 8
  %cmp14 = icmp eq ptr %call13, null
  br i1 %cmp14, label %if.then15, label %if.end16

if.then15:                                        ; preds = %cond.end
  store ptr %0, ptr %ptr, align 8
  call void @_ZN5arrow6Status8FromArgsIJRA17_KcRlRA8_S2_EEES0_NS_10StatusCodeEDpOT_(ptr sret(%"class.arrow::Status") align 8 %agg.result, i8 noundef signext 1, ptr noundef nonnull align 1 dereferenceable(17) @.str.3, ptr noundef nonnull align 8 dereferenceable(8) %new_size.addr, ptr noundef nonnull align 1 dereferenceable(8) @.str.2)
  br label %return

if.end16:                                         ; preds = %cond.end
  store ptr null, ptr %agg.result, align 8, !alias.scope !22
  br label %return

return:                                           ; preds = %if.end16, %if.then15, %_ZN5arrow11memory_pool8internal17JemallocAllocator17DeallocateAlignedEPhll.exit, %_ZN5arrow11memory_pool8internal17JemallocAllocator15AllocateAlignedEllPPh.exit
  ret void
}